; Function Attrs: mustprogress nofree norecurse nosync nounwind willreturn memory(argmem: readwrite) uwtable
define noundef ptr @_ZNK6icu_7713DecimalFormat17toNumberFormatterER10UErrorCode(ptr noundef nonnull readonly align 8 captures(none) dereferenceable(72) %0, ptr noundef nonnull align 4 captures(none) dereferenceable(4) %1) local_unnamed_addr #15 align 2 {
  %3 = load i32, ptr %1, align 4, !tbaa !13
  %4 = icmp slt i32 %3, 1
  br i1 %4, label %5, label %12

5:                                                ; preds = %2
  %6 = getelementptr inbounds nuw i8, ptr %0, i64 64
  %7 = load ptr, ptr %6, align 8, !tbaa !25
  %8 = icmp eq ptr %7, null
  br i1 %8, label %9, label %10

9:                                                ; preds = %5
  store i32 7, ptr %1, align 4, !tbaa !13
  br label %12

10:                                               ; preds = %5
  %11 = getelementptr inbounds nuw i8, ptr %7, i64 776
  br label %12

12:                                               ; preds = %2, %10, %9
  %.0 = phi ptr [ null, %9 ], [ %11, %10 ], [ null, %2 ]
  ret ptr %.0
}